Certificate:
    Data:
        Version: 1 (0x0)
        Serial Number: 278 (0x116)
    Signature Algorithm: md5WithRSAEncryption
        Issuer: C=SG, ST=Singapore, L=Singapore, O=SUTD, OU=SUTD, CN=Benjamin Kang/emailAddress=webby1111@hotmail.com
        Validity
            Not Before: Apr  5 08:14:39 2018 GMT
            Not After : Apr  5 08:14:39 2019 GMT
        Subject: C=SG, ST=SG, L=Singapore, O=SUTD, OU=SUTD, CN=Alice/emailAddress=Alice@yahoo.com.sg
        Subject Public Key Info:
            Public Key Algorithm: rsaEncryption
                Public-Key: (1024 bit)
                Modulus:
                    00:bd:51:99:c7:9e:e2:5d:a8:fd:58:7b:97:79:24:
                    12:10:03:31:4b:02:08:a4:fc:c9:5b:0a:58:da:eb:
                    69:53:6b:06:5a:aa:1e:3d:5f:3d:2e:f2:5f:ea:49:
                    e3:69:68:5c:e0:2f:10:43:3d:9d:92:dd:db:74:f8:
                    4b:ce:cc:45:6a:b2:45:30:ad:27:3e:42:03:88:48:
                    7e:6c:f3:d1:e5:cf:e7:e2:1f:2d:3f:17:46:8a:cb:
                    7c:a4:b2:9c:ba:d6:79:8f:ed:93:27:3a:72:ad:f8:
                    a0:3b:02:c1:30:7d:8b:f2:b9:25:fb:76:b8:32:ba:
                    cb:1a:d0:55:2d:5b:29:c7:a7
                Exponent: 65537 (0x10001)
    Signature Algorithm: md5WithRSAEncryption
         19:2e:f3:12:a3:cb:33:cf:83:38:71:4a:5d:80:61:9c:5f:47:
         4d:36:28:09:ba:0f:15:e8:88:7f:85:86:ea:83:0a:d3:d1:c0:
         7c:ab:47:81:8b:80:75:d6:d5:85:2b:32:7a:cf:33:ec:0f:c2:
         a7:90:ea:1c:cc:ce:dc:96:0b:a6:3a:14:17:90:c0:87:42:53:
         b0:9e:77:5d:fc:0d:d8:01:8a:e8:fd:9d:60:e6:f1:ed:b0:c0:
         39:c5:e1:29:62:68:c5:df:4d:0b:10:41:e4:0f:13:7f:ea:a2:
         cc:e5:59:20:7d:31:90:42:be:ee:99:97:c5:09:d4:74:59:e8:
         8b:20
-----BEGIN CERTIFICATE-----
MIICgTCCAeoCAgEWMA0GCSqGSIb3DQEBBAUAMIGRMQswCQYDVQQGEwJTRzESMBAG
A1UECBMJU2luZ2Fwb3JlMRIwEAYDVQQHEwlTaW5nYXBvcmUxDTALBgNVBAoTBFNV
VEQxDTALBgNVBAsTBFNVVEQxFjAUBgNVBAMTDUJlbmphbWluIEthbmcxJDAiBgkq
hkiG9w0BCQEWFXdlYmJ5MTExMUBob3RtYWlsLmNvbTAeFw0xODA0MDUwODE0Mzla
Fw0xOTA0MDUwODE0MzlaMH8xCzAJBgNVBAYTAlNHMQswCQYDVQQIDAJTRzESMBAG
A1UEBwwJU2luZ2Fwb3JlMQ0wCwYDVQQKDARTVVREMQ0wCwYDVQQLDARTVVREMQ4w
DAYDVQQDDAVBbGljZTEhMB8GCSqGSIb3DQEJARYSQWxpY2VAeWFob28uY29tLnNn
MIGfMA0GCSqGSIb3DQEBAQUAA4GNADCBiQKBgQC9UZnHnuJdqP1Ye5d5JBIQAzFL
Agik/MlbClja62lTawZaqh49Xz0u8l/qSeNpaFzgLxBDPZ2S3dt0+EvOzEVqskUw
rSc+QgOISH5s89Hlz+fiHy0/F0aKy3ykspy61nmP7ZMnOnKt+KA7AsEwfYvyuSX7
drgyussa0FUtWynHpwIDAQABMA0GCSqGSIb3DQEBBAUAA4GBABku8xKjyzPPgzhx
Sl2AYZxfR002KAm6DxXoiH+FhuqDCtPRwHyrR4GLgHXW1YUrMnrPM+wPwqeQ6hzM
ztyWC6Y6FBeQwIdCU7Ced138DdgBiuj9nWDm8e2wwDnF4SliaMXfTQsQQeQPE3/q
oszlWSB9MZBCvu6Zl8UJ1HRZ6Isg
-----END CERTIFICATE-----
